target datalayout = "e-m:e-p270:32:32-p271:32:32-p272:64:64-i64:64-i128:128-f80:128-n8:16:32:64-S128"
target triple = "x86_64-pc-linux-gnu"

%struct.expert_field = type { i32, i32 }

@ei_llrp_invalid_length = internal global %struct.expert_field zeroinitializer, align 4
@.str.955 = private unnamed_addr constant [52 x i8] c"invalid length of string: claimed %u, available %u.\00", align 1

; Function Attrs: null_pointer_is_valid sspstrong uwtable
define internal i32 @dissect_llrp_utf8_parameter(ptr noundef %0, ptr noundef %1, ptr noundef %2, i32 noundef %3, i32 noundef %4) #0 {
  %6 = alloca i32, align 4
  %7 = alloca ptr, align 8
  %8 = alloca ptr, align 8
  %9 = alloca ptr, align 8
  %10 = alloca i32, align 4
  %11 = alloca i32, align 4
  %12 = alloca i32, align 4
  %13 = alloca i32, align 4
  store ptr %0, ptr %7, align 8
  store ptr %1, ptr %8, align 8
  store ptr %2, ptr %9, align 8
  store i32 %3, ptr %10, align 4
  store i32 %4, ptr %11, align 4
  call void @llvm.lifetime.start.p0(i64 4, ptr %12) #4
  %14 = load ptr, ptr %7, align 8
  %15 = load i32, ptr %11, align 4
  %16 = call zeroext i16 @tvb_get_ntohs(ptr noundef %14, i32 noundef %15)
  %17 = zext i16 %16 to i32
  store i32 %17, ptr %12, align 4
  %18 = load ptr, ptr %7, align 8
  %19 = load i32, ptr %11, align 4
  %20 = call i32 @tvb_reported_length_remaining(ptr noundef %18, i32 noundef %19)
  %21 = load i32, ptr %12, align 4
  %22 = icmp slt i32 %20, %21
  br i1 %22, label %23, label %33

23:                                               ; preds = %5
  %24 = load ptr, ptr %8, align 8
  %25 = load ptr, ptr %9, align 8
  %26 = load i32, ptr %12, align 4
  %27 = load ptr, ptr %7, align 8
  %28 = load i32, ptr %11, align 4
  %29 = call i32 @tvb_reported_length_remaining(ptr noundef %27, i32 noundef %28)
  %30 = call ptr (ptr, ptr, ptr, ptr, ...) @expert_add_info_format(ptr noundef %24, ptr noundef %25, ptr noundef @ei_llrp_invalid_length, ptr noundef @.str.955, i32 noundef %26, i32 noundef %29)
  %31 = load i32, ptr %11, align 4
  %32 = add i32 %31, 2
  store i32 %32, ptr %6, align 4
  store i32 1, ptr %13, align 4
  br label %43

33:                                               ; preds = %5
  %34 = load ptr, ptr %9, align 8
  %35 = load i32, ptr %10, align 4
  %36 = load ptr, ptr %7, align 8
  %37 = load i32, ptr %11, align 4
  %38 = call ptr @proto_tree_add_item(ptr noundef %34, i32 noundef %35, ptr noundef %36, i32 noundef %37, i32 noundef 2, i32 noundef 2)
  %39 = load i32, ptr %11, align 4
  %40 = load i32, ptr %12, align 4
  %41 = add i32 %39, %40
  %42 = add i32 %41, 2
  store i32 %42, ptr %6, align 4
  store i32 1, ptr %13, align 4
  br label %43

43:                                               ; preds = %33, %23
  call void @llvm.lifetime.end.p0(i64 4, ptr %12) #4
  %44 = load i32, ptr %6, align 4
  ret i32 %44
}