; Function Attrs: null_pointer_is_valid sspstrong uwtable
define internal fastcc i32 @dissect_llrp_utf8_parameter(ptr noundef %0, ptr noundef %1, ptr noundef %2, i32 noundef %3, i32 noundef %4) unnamed_addr #0 {
  %6 = tail call zeroext i16 @tvb_get_ntohs(ptr noundef %0, i32 noundef %4)
  %7 = zext i16 %6 to i32
  %8 = tail call i32 @tvb_reported_length_remaining(ptr noundef %0, i32 noundef %4)
  %9 = icmp slt i32 %8, %7
  br i1 %9, label %10, label %13

10:                                               ; preds = %5
  %11 = tail call i32 @tvb_reported_length_remaining(ptr noundef %0, i32 noundef %4)
  %12 = tail call ptr (ptr, ptr, ptr, ptr, ...) @expert_add_info_format(ptr noundef %1, ptr noundef %2, ptr noundef nonnull @ei_llrp_invalid_length, ptr noundef nonnull @.str.955, i32 noundef %7, i32 noundef %11)
  br label %16

13:                                               ; preds = %5
  %14 = tail call ptr @proto_tree_add_item(ptr noundef %2, i32 noundef %3, ptr noundef %0, i32 noundef %4, i32 noundef 2, i32 noundef 2)
  %15 = add i32 %4, %7
  br label %16

16:                                               ; preds = %13, %10
  %.0.in = phi i32 [ %4, %10 ], [ %15, %13 ]
  %.0 = add i32 %.0.in, 2
  ret i32 %.0
}